; Function Attrs: nofree norecurse nosync nounwind memory(read, inaccessiblemem: none) uwtable
define i32 @Llb_ManMaxFanoutCi(ptr noundef readonly captures(none) %0) local_unnamed_addr #0 {
  %2 = getelementptr inbounds nuw i8, ptr %0, i64 16
  %3 = load ptr, ptr %2, align 8
  %4 = getelementptr i8, ptr %3, i64 4
  %.val = load i32, ptr %4, align 4
  %5 = icmp sgt i32 %.val, 0
  br i1 %5, label %.lr.ph, label %.critedge

.lr.ph:                                           ; preds = %1
  %6 = getelementptr i8, ptr %3, i64 8
  %.val12 = load ptr, ptr %6, align 8
  %wide.trip.count = zext nneg i32 %.val to i64
  br label %7

7:                                                ; preds = %.lr.ph, %7
  %indvars.iv = phi i64 [ 0, %.lr.ph ], [ %indvars.iv.next, %7 ]
  %.018 = phi i32 [ -1, %.lr.ph ], [ %spec.select15, %7 ]
  %.0917 = phi i32 [ -1000000000, %.lr.ph ], [ %spec.select, %7 ]
  %8 = getelementptr inbounds nuw ptr, ptr %.val12, i64 %indvars.iv
  %9 = load ptr, ptr %8, align 8
  %10 = getelementptr i8, ptr %9, i64 24
  %.val13 = load i64, ptr %10, align 8
  %11 = trunc i64 %.val13 to i32
  %12 = lshr i32 %11, 6
  %13 = icmp slt i32 %.0917, %12
  %spec.select = tail call i32 @llvm.smax.i32(i32 %.0917, i32 %12)
  %14 = trunc nuw nsw i64 %indvars.iv to i32
  %spec.select15 = select i1 %13, i32 %14, i32 %.018
  %indvars.iv.next = add nuw nsw i64 %indvars.iv, 1
  %exitcond.not = icmp eq i64 %indvars.iv.next, %wide.trip.count
  br i1 %exitcond.not, label %.critedge, label %7, !llvm.loop !4

.critedge:                                        ; preds = %7, %1
  %.0.lcssa = phi i32 [ -1, %1 ], [ %spec.select15, %7 ]
  ret i32 %.0.lcssa
}